target datalayout = "e-m:e-p270:32:32-p271:32:32-p272:64:64-i64:64-i128:128-f80:128-n8:16:32:64-S128"
target triple = "x86_64-pc-linux-gnu"

%struct.SDL_AtomicU32 = type { i32 }
%struct.SDL_Hint = type { ptr, i32, ptr }
%struct.SDL_HintWatch = type { ptr, ptr, ptr }

@SDL_hint_props = internal global %struct.SDL_AtomicU32 zeroinitializer, align 4

; Function Attrs: nounwind uwtable
define internal i32 @GetHintProperties(i1 noundef zeroext %0) #0 {
  %2 = alloca i8, align 1
  %3 = alloca i32, align 4
  %4 = zext i1 %0 to i8
  store i8 %4, ptr %2, align 1
  call void @llvm.lifetime.start.p0(i64 4, ptr %3) #3
  %5 = call i32 @SDL_GetAtomicU32_REAL(ptr noundef @SDL_hint_props)
  store i32 %5, ptr %3, align 4
  %6 = load i32, ptr %3, align 4
  %7 = icmp ne i32 %6, 0
  br i1 %7, label %19, label %8

8:                                                ; preds = %1
  %9 = load i8, ptr %2, align 1, !range !6, !noundef !7
  %10 = trunc i8 %9 to i1
  br i1 %10, label %11, label %19

11:                                               ; preds = %8
  %12 = call i32 @SDL_CreateProperties_REAL()
  store i32 %12, ptr %3, align 4
  %13 = load i32, ptr %3, align 4
  %14 = call zeroext i1 @SDL_CompareAndSwapAtomicU32_REAL(ptr noundef @SDL_hint_props, i32 noundef 0, i32 noundef %13)
  br i1 %14, label %18, label %15

15:                                               ; preds = %11
  %16 = load i32, ptr %3, align 4
  call void @SDL_DestroyProperties_REAL(i32 noundef %16)
  %17 = call i32 @SDL_GetAtomicU32_REAL(ptr noundef @SDL_hint_props)
  store i32 %17, ptr %3, align 4
  br label %18

18:                                               ; preds = %15, %11
  br label %19

19:                                               ; preds = %18, %8, %1
  %20 = load i32, ptr %3, align 4
  call void @llvm.lifetime.end.p0(i64 4, ptr %3) #3
  ret i32 %20
}

; Function Attrs: nounwind uwtable
define hidden void @SDL_RemoveHintCallback_REAL(ptr noundef %0, ptr noundef %1, ptr noundef %2) #0 {
  %4 = alloca ptr, align 8
  %5 = alloca ptr, align 8
  %6 = alloca ptr, align 8
  %7 = alloca i32, align 4
  %8 = alloca i32, align 4
  %9 = alloca ptr, align 8
  %10 = alloca ptr, align 8
  %11 = alloca ptr, align 8
  store ptr %0, ptr %4, align 8
  store ptr %1, ptr %5, align 8
  store ptr %2, ptr %6, align 8
  %12 = load ptr, ptr %4, align 8
  %13 = icmp ne ptr %12, null
  br i1 %13, label %14, label %18

14:                                               ; preds = %3
  %15 = load ptr, ptr %4, align 8
  %16 = load i8, ptr %15, align 1
  %17 = icmp ne i8 %16, 0
  br i1 %17, label %19, label %18

18:                                               ; preds = %14, %3
  br label %81

19:                                               ; preds = %14
  call void @llvm.lifetime.start.p0(i64 4, ptr %7) #3
  %20 = call i32 @GetHintProperties(i1 noundef zeroext false)
  store i32 %20, ptr %7, align 4
  %21 = load i32, ptr %7, align 4
  %22 = icmp ne i32 %21, 0
  br i1 %22, label %24, label %23

23:                                               ; preds = %19
  store i32 1, ptr %8, align 4
  br label %79

24:                                               ; preds = %19
  %25 = load i32, ptr %7, align 4
  %26 = call zeroext i1 @SDL_LockProperties_REAL(i32 noundef %25)
  call void @llvm.lifetime.start.p0(i64 8, ptr %9) #3
  %27 = load i32, ptr %7, align 4
  %28 = load ptr, ptr %4, align 8
  %29 = call ptr @SDL_GetPointerProperty_REAL(i32 noundef %27, ptr noundef %28, ptr noundef null)
  store ptr %29, ptr %9, align 8
  %30 = load ptr, ptr %9, align 8
  %31 = icmp ne ptr %30, null
  br i1 %31, label %32, label %77

32:                                               ; preds = %24
  call void @llvm.lifetime.start.p0(i64 8, ptr %10) #3
  store ptr null, ptr %10, align 8
  call void @llvm.lifetime.start.p0(i64 8, ptr %11) #3
  %33 = load ptr, ptr %9, align 8
  %34 = getelementptr inbounds nuw %struct.SDL_Hint, ptr %33, i32 0, i32 2
  %35 = load ptr, ptr %34, align 8
  store ptr %35, ptr %11, align 8
  br label %36

36:                                               ; preds = %71, %32
  %37 = load ptr, ptr %11, align 8
  %38 = icmp ne ptr %37, null
  br i1 %38, label %40, label %39

39:                                               ; preds = %36
  store i32 2, ptr %8, align 4
  br label %75

40:                                               ; preds = %36
  %41 = load ptr, ptr %5, align 8
  %42 = load ptr, ptr %11, align 8
  %43 = getelementptr inbounds nuw %struct.SDL_HintWatch, ptr %42, i32 0, i32 0
  %44 = load ptr, ptr %43, align 8
  %45 = icmp eq ptr %41, %44
  br i1 %45, label %46, label %69

46:                                               ; preds = %40
  %47 = load ptr, ptr %6, align 8
  %48 = load ptr, ptr %11, align 8
  %49 = getelementptr inbounds nuw %struct.SDL_HintWatch, ptr %48, i32 0, i32 1
  %50 = load ptr, ptr %49, align 8
  %51 = icmp eq ptr %47, %50
  br i1 %51, label %52, label %69

52:                                               ; preds = %46
  %53 = load ptr, ptr %10, align 8
  %54 = icmp ne ptr %53, null
  br i1 %54, label %55, label %61

55:                                               ; preds = %52
  %56 = load ptr, ptr %11, align 8
  %57 = getelementptr inbounds nuw %struct.SDL_HintWatch, ptr %56, i32 0, i32 2
  %58 = load ptr, ptr %57, align 8
  %59 = load ptr, ptr %10, align 8
  %60 = getelementptr inbounds nuw %struct.SDL_HintWatch, ptr %59, i32 0, i32 2
  store ptr %58, ptr %60, align 8
  br label %67

61:                                               ; preds = %52
  %62 = load ptr, ptr %11, align 8
  %63 = getelementptr inbounds nuw %struct.SDL_HintWatch, ptr %62, i32 0, i32 2
  %64 = load ptr, ptr %63, align 8
  %65 = load ptr, ptr %9, align 8
  %66 = getelementptr inbounds nuw %struct.SDL_Hint, ptr %65, i32 0, i32 2
  store ptr %64, ptr %66, align 8
  br label %67

67:                                               ; preds = %61, %55
  %68 = load ptr, ptr %11, align 8
  call void @SDL_free_REAL(ptr noundef %68)
  store i32 2, ptr %8, align 4
  br label %75

69:                                               ; preds = %46, %40
  %70 = load ptr, ptr %11, align 8
  store ptr %70, ptr %10, align 8
  br label %71

71:                                               ; preds = %69
  %72 = load ptr, ptr %11, align 8
  %73 = getelementptr inbounds nuw %struct.SDL_HintWatch, ptr %72, i32 0, i32 2
  %74 = load ptr, ptr %73, align 8
  store ptr %74, ptr %11, align 8
  br label %36, !llvm.loop !11

75:                                               ; preds = %67, %39
  call void @llvm.lifetime.end.p0(i64 8, ptr %11) #3
  br label %76

76:                                               ; preds = %75
  call void @llvm.lifetime.end.p0(i64 8, ptr %10) #3
  br label %77

77:                                               ; preds = %76, %24
  %78 = load i32, ptr %7, align 4
  call void @SDL_UnlockProperties_REAL(i32 noundef %78)
  call void @llvm.lifetime.end.p0(i64 8, ptr %9) #3
  store i32 0, ptr %8, align 4
  br label %79

79:                                               ; preds = %77, %23
  call void @llvm.lifetime.end.p0(i64 4, ptr %7) #3
  %80 = load i32, ptr %8, align 4
  switch i32 %80, label %82 [
    i32 0, label %81
    i32 1, label %81
  ]

81:                                               ; preds = %18, %79, %79
  ret void

82:                                               ; preds = %79
  unreachable
}