; Function Attrs: nounwind uwtable
define hidden void @SDL_RemoveHintCallback_REAL(ptr noundef %0, ptr noundef readnone captures(address) %1, ptr noundef readnone captures(address) %2) local_unnamed_addr #1 {
  %.not = icmp eq ptr %0, null
  br i1 %.not, label %28, label %4

4:                                                ; preds = %3
  %5 = load i8, ptr %0, align 1
  %.not25 = icmp eq i8 %5, 0
  br i1 %.not25, label %28, label %6

6:                                                ; preds = %4
  %7 = tail call i32 @SDL_GetAtomicU32_REAL(ptr noundef nonnull @SDL_hint_props) #3
  %.not26 = icmp eq i32 %7, 0
  br i1 %.not26, label %28, label %8

8:                                                ; preds = %6
  %9 = tail call zeroext i1 @SDL_LockProperties_REAL(i32 noundef %7) #3
  %10 = tail call ptr @SDL_GetPointerProperty_REAL(i32 noundef %7, ptr noundef nonnull %0, ptr noundef null) #3
  %.not27 = icmp eq ptr %10, null
  br i1 %.not27, label %.loopexit, label %11

11:                                               ; preds = %8
  %12 = getelementptr inbounds nuw i8, ptr %10, i64 16
  %.032 = load ptr, ptr %12, align 8
  %.not2833 = icmp eq ptr %.032, null
  br i1 %.not2833, label %.loopexit, label %.lr.ph

.lr.ph:                                           ; preds = %11, %26
  %.035 = phi ptr [ %.0, %26 ], [ %.032, %11 ]
  %.02134 = phi ptr [ %.035, %26 ], [ null, %11 ]
  %13 = load ptr, ptr %.035, align 8
  %14 = icmp eq ptr %1, %13
  br i1 %14, label %15, label %26

15:                                               ; preds = %.lr.ph
  %16 = getelementptr inbounds nuw i8, ptr %.035, i64 8
  %17 = load ptr, ptr %16, align 8
  %18 = icmp eq ptr %2, %17
  br i1 %18, label %19, label %26

19:                                               ; preds = %15
  %.not29 = icmp eq ptr %.02134, null
  %20 = getelementptr inbounds nuw i8, ptr %.035, i64 16
  %21 = load ptr, ptr %20, align 8
  br i1 %.not29, label %24, label %22

22:                                               ; preds = %19
  %23 = getelementptr inbounds nuw i8, ptr %.02134, i64 16
  store ptr %21, ptr %23, align 8
  br label %25

24:                                               ; preds = %19
  store ptr %21, ptr %12, align 8
  br label %25

25:                                               ; preds = %24, %22
  tail call void @SDL_free_REAL(ptr noundef nonnull %.035) #3
  br label %.loopexit

26:                                               ; preds = %15, %.lr.ph
  %27 = getelementptr inbounds nuw i8, ptr %.035, i64 16
  %.0 = load ptr, ptr %27, align 8
  %.not28 = icmp eq ptr %.0, null
  br i1 %.not28, label %.loopexit, label %.lr.ph, !llvm.loop !9

.loopexit:                                        ; preds = %26, %11, %25, %8
  tail call void @SDL_UnlockProperties_REAL(i32 noundef %7) #3
  br label %28

28:                                               ; preds = %.loopexit, %6, %3, %4
  ret void
}